LIBRARY "ac3d.exe"
EXPORTS
??0Undoable@@QAE@XZ
??0UndoableAddObjectWorld@@QAE@PAVACObject@@@Z
??0UndoableChangeTextureCoords@@QAE@PAUlistitem@@0@Z
??0UndoableModifyGeometry@@QAE@XZ
??0UndoableSelection@@QAE@XZ
??0UndoableVertexPositions@@QAE@PAUlistitem@@@Z
??1Undoable@@UAE@XZ
??1UndoableAddObjectWorld@@UAE@XZ
??1UndoableChangeTextureCoords@@UAE@XZ
??1UndoableModifyGeometry@@UAE@XZ
??1UndoableSelection@@UAE@XZ
??1UndoableVertexPositions@@UAE@XZ
?FixUVWrap@@YAXPAVSurface@@@Z
?REDO@@YAXXZ
?_rk67dll@@YAXPAD@Z
?abort@Undoable@@QAEXXZ
?ac_edge_print@@YAXPAUACMeshEdge_t@@@Z
?ac_entity_set_entity_value@@YAHPAVACEntity@@PAD0@Z
?ac_geometry_free@@YAXPAUACGeom_t@@@Z
?ac_get_file_importers_by_suffix@@YAPAUlistitem@@PAD@Z
?ac_import_md2@@YAPAVACObject@@PAD@Z
?ac_import_quake3bsp@@YAPAVACObject@@PAD@Z
?ac_material_init_rgb@@YAXPAVACMaterial@@J@Z
?ac_mesh_add_triangles@@YAXPAUACMesh_t@@PAUACMeshTriangle_t@@H@Z
?ac_mesh_add_vertices@@YAXPAUACMesh_t@@PAUpoint3_t@@H@Z
?ac_mesh_delete_all_triangles@@YAXPAUACMesh_t@@@Z
?ac_mesh_find_edges@@YAHPAUACMesh_t@@@Z
?ac_mesh_free@@YAXPAUACMesh_t@@@Z
?ac_mesh_get_edge_list@@YAPAUlistitem@@PAUACMesh_t@@@Z
?ac_mesh_get_object_vertices@@YAHPAVACObject@@PAUACMesh_t@@@Z
?ac_mesh_to_object@@YAPAVACObject@@PAUACMesh_t@@@Z
?ac_new_edge@@YAPAUACMeshEdge_t@@HHHH@Z
?ac_new_mesh@@YAPAUACMesh_t@@XZ
?ac_object_clone_geometry@@YAPAUACGeom_t@@PAVACObject@@@Z
?ac_object_contains_polygons_only@@YAHPAVACObject@@@Z
?ac_object_dirty_subdivisions@@YAXPAVACObject@@@Z
?ac_object_find_edges@@YAHPAVACObject@@PAPAUACMeshEdge_t@@@Z
?ac_object_get_edge_array@@YAPAV?$ACArray@PAUACEdge_t@@@@PAVACObject@@@Z
?ac_object_get_edges_and_subdiv_info@@YAPAV?$ACArray@PAUACEdge_t@@@@PAVACObject@@@Z
?ac_object_get_geometry@@YAPAUACGeom_t@@PAVACObject@@@Z
?ac_object_get_meshtriangle_array@@YAHPAVACObject@@PAPAUACMeshTriangle_t@@@Z
?ac_object_get_meshtriangle_list@@YAPAUlistitem@@PAVACObject@@@Z
?ac_object_is_descentdent_of@@YAHPAVACObject@@0@Z
?ac_object_remove_geometry@@YAPAUACGeom_t@@PAVACObject@@@Z
?ac_object_set_geometry@@YAPAUACGeom_t@@PAVACObject@@PAU1@@Z
?ac_object_surfaces_set_owner@@YAXPAVACObject@@@Z
?ac_object_to_mesh@@YAPAUACMesh_t@@PAVACObject@@@Z
?ac_object_transfer_geometry@@YAPAUACGeom_t@@PAVACObject@@0@Z
?ac_object_vertices_set_owner@@YAXPAVACObject@@@Z
?ac_palette_find_material_by_name@@YAHPAD@Z
?ac_position_subdivided_vertices@@YAXPAVACObject@@@Z
?ac_replace_command_function@@YAHPADPAX@Z
?ac_set_render_object_callback@@YAXP6AHPAUrender_object_t@@@Z@Z
?ac_surface_is_nonplanar@@YAHPAVSurface@@@Z
?ac_surface_is_planar@@YAHPAVSurface@@@Z
?ac_surface_is_poly_quad@@YAHPAVSurface@@@Z
?ac_surface_is_poly_triangle@@YAHPAVSurface@@@Z
?ac_surface_poly_has_more_than_four_vertices@@YAHPAVSurface@@@Z
?ac_surface_vertices_are_adjacent@@YAHPAVSurface@@PAVVertex@@1@Z
?ac_surfaces_get_edges@@YAPAUlistitem@@AAV?$ACArray@PAVSurface@@@@@Z
?ac_vertex_is_used_by_surface@@YAHPAVVertex@@@Z
?ac_vertexlist_in_same_object@@YAHPAUlistitem@@@Z
?ac_view_fit_selected@@YAXH@Z
?add_resource@ACEntity@@QAEXPAD0HHH@Z
?add_sphere_size_centre@@YAPAVACObject@@PAUpoint3_t@@0@Z
?add_spin_rotation@ACCamera@@QAEXMM@Z
?add_undoable_opt@@YAHPADPAVUndoable@@H@Z
?allows_further_undos@Undoable@@QAEHXZ
?axis_to_view@@YAHH@Z
?backup_svlists@UndoableModifyGeometry@@QAEXPAUlistitem@@@Z
?check_handle@@YAHHHPAVACViewWin@@PAUpoint3_t@@@Z
?check_side@@YAHHHPAVACViewWin@@PAUpoint3_t@@@Z
?clear@ACViewWin@@QAEXXZ
?clear_background_image@ACViewWin@@QAEXXZ
?com_class_get_resources_local@@YAHPAVACClass@@@Z
?command_result_append_hex@@YAXH@Z
?command_result_clear@@YAXXZ
?crap_calc_texture_coors@@YAXPAVACObject@@H@Z
?create_surface_from_vertices@@YAPAVSurface@@PAUlistitem@@@Z
?create_surface_object_from_vertices@@YAPAVACObject@@PAUlistitem@@@Z
?credits_popup@@YAXXZ
?display_select_mode@@YAXXZ
?distance_from_plane@@YAMPAUpoint3_t@@00@Z
?distance_to_pixels@ACViewWin@@QAEHM@Z
?do_lib3ds_load@@YAPAVACObject@@PAD@Z
?do_pick_projection_matrix@@YAXPAH@Z
?draw_axis_guide@ACViewWin@@QAEXXZ
?draw_ellipse@ACWin@@UAEXMMMMH@Z
?draw_line@ACWin@@UAEXHHHH@Z
?draw_line_width@ACWin@@UAEXHHHHH@Z
?draw_orth_grid@ACViewWin@@QAEHXZ
?draw_orth_snapgrid@ACViewWin@@QAEHXZ
?draw_point@ACWin@@UAEXHH@Z
?draw_rect@ACWin@@UAEXHHHH@Z
?draw_text@ACWin@@UAEXHHPAD@Z
?draw_text@ACWin@@UAEXMMMPAD@Z
?draw_to_back@ACWin@@UAEXXZ
?draw_to_front@ACWin@@UAEXXZ
?draw_vert_line@@YAXPAVVertex@@0PAVACViewWin@@H@Z
?event_enter_window@ACViewWin@@UAEXXZ
?event_enter_window@ACWin@@UAEXXZ
?event_leave_window@ACViewWin@@UAEXXZ
?event_leave_window@ACWin@@UAEXXZ
?event_mouse_down@ACViewWin@@UAEXPAX@Z
?event_mouse_down@ACWin@@UAEXPAX@Z
?event_mouse_move@ACViewWin@@UAEXPAX@Z
?event_mouse_move@ACWin@@UAEXPAX@Z
?event_mouse_up@ACViewWin@@UAEXPAX@Z
?event_mouse_up@ACWin@@UAEXPAX@Z
?event_redisplay@ACViewWin@@UAEXXZ
?event_redisplay@ACWin@@UAEXXZ
?event_resize_window@ACViewWin@@UAEXHH@Z
?event_resize_window@ACWin@@UAEXHH@Z
?event_timer@ACViewWin@@UAEXXZ
?event_timer@ACWin@@UAEXXZ
?execute@Undoable@@UAEXXZ
?execute@UndoableAddObjectWorld@@UAEXXZ
?execute@UndoableChangeTextureCoords@@UAEXXZ
?execute@UndoableSelection@@UAEXXZ
?execute@UndoableVertexPositions@@UAEXXZ
?fill_rect@ACWin@@UAEXHHHH@Z
?finalize@ACEntity@@UAEXXZ
?find_edge_in_meshedges@@YAHPAUACMesh_t@@HHPAH@Z
?find_points_inside@@YAXPAVACObject@@PAUpoint3_t@@1PAVACViewWin@@PAPAUlistitem@@3@Z
?fit_all@ACViewWin@@QAEXXZ
?fit_selected@ACViewWin@@QAEXXZ
?free_svlists@UndoableModifyGeometry@@IAEXXZ
?free_vertex_subdiv_data@ACObject@@QAEXXZ
?get_and_remove_subdivision@ACObject@@QAEPAV1@XZ
?get_camera@ACViewWin@@QAEPAVACCamera@@XZ
?get_camera_fov@ACViewWin@@QAEHXZ
?get_class@ACEntity@@QAEPAVACClass@@XZ
?get_class_name@ACEntity@@QAEPADXZ
?get_current@ACWin@@SAPAV1@XZ
?get_edges@ACObject@@QAEPAV?$ACArray@PAUACEdge_t@@@@XZ
?get_hidden_objects@@YAPAUlistitem@@XZ
?get_locked_objects@@YAPAUlistitem@@XZ
?get_name@Undoable@@QAEPADXZ
?get_resource@ACEntity@@QAEPAVACResource@@PAD@Z
?get_size@ACWin@@QAEXPAH0@Z
?get_spin_rotation@ACCamera@@QAEXPAM0@Z
?get_subdivision@ACObject@@QAEPAV1@XZ
?get_subdivision_level@ACObject@@QAEHXZ
?get_total_mem@@YAHXZ
?get_value@ACEntity@@QAEHPAD0PAX@Z
?global_matrix_print@@YAXXZ
?goto_point@ACViewWin@@QAEXPAUpoint3_t@@@Z
?goto_selected@ACViewWin@@QAEXXZ
?handle_mouse_down@ACViewWin@@QAEXHHHHH@Z
?handle_mouse_move@ACViewWin@@QAEXHHH@Z
?handle_mouse_up@ACViewWin@@QAEXHHHH@Z
?handle_special_key_press@@YAHPAVACViewWin@@PADH@Z
?init_and_register_class_camera@@YAPAVACClass@@XZ
?init_and_register_class_group@@YAPAVACClass@@XZ
?init_and_register_class_image@@YAPAVACClass@@XZ
?init_and_register_class_joint@@YAPAVACClass@@XZ
?init_and_register_class_light@@YAPAVACClass@@XZ
?init_and_register_class_material@@YAPAVACClass@@XZ
?init_and_register_class_object@@YAPAVACClass@@XZ
?init_and_register_class_view@@YAPAVACClass@@XZ
?init_and_register_class_window@@YAPAVACClass@@XZ
?init_and_register_class_world@@YAPAVACClass@@XZ
?init_classes@@YAXXZ
?init_matrix@ACCamera@@QAEXXZ
?init_triangulation@@YAXXZ
?is_2d@ACViewWin@@QAEHXZ
?is_3d@ACViewWin@@QAEHXZ
?is_antialiased@ACViewWin@@QAEHXZ
?is_class@ACEntity@@QAEHPAD@Z
?is_mapped@ACWin@@QAEHXZ
?is_redoable@Undoable@@QAEHXZ
?is_repeatable@Undoable@@QAEHXZ
?is_subdivided@ACObject@@QAEHXZ
?is_walk_vehicle@ACCamera@@QAEHXZ
?level@ACCamera@@QAEXXZ
?lib3ds_export@@YAHPAD@Z
?link_c_and_ui_vars@@YAXXZ
?list_subdiv@@YAHXZ
?load_prefs_file@@YAHH@Z
?look_at@ACCamera@@QAEXPAUpoint3_t@@@Z
?make_regular_shape@@YAXHPAUpoint3_t@@00H@Z
?make_tcl_window@@YAXPADHH@Z
?material_compare@@YAHPAVACMaterial@@PAUmaterial_template_t@@@Z
?matrix4_copy@@YAXPAM0@Z
?matrix4_level@@YAXPAM@Z
?matrix4_multiply@@YAXPAMPBM1@Z
?matrix4_normalise@@YAXPAM@Z
?matrix4_print@@YAXPAM@Z
?matrix4_set_direction@@YAXPAMPAUpoint3_t@@M@Z
?matrix4_set_identity@@YAXPAM@Z
?matrix4_set_rotation@@YAXMMMMQAM@Z
?matrix4_transpose@@YAXPAM0@Z
?mfc_init@@YAHXZ
?mode_to_manip_type@@YAHH@Z
?mouse_to_world@@YAXPAVACViewWin@@PAUpoint3_t@@1@Z
?move_back@ACCamera@@QAEXM@Z
?move_down@ACCamera@@QAEXM@Z
?move_forward@ACCamera@@QAEXM@Z
?move_left@ACCamera@@QAEXM@Z
?move_right@ACCamera@@QAEXM@Z
?move_up@ACCamera@@QAEXM@Z
?move_view@ACViewWin@@QAEXMM@Z
?new_geometry@@YAPAUACGeom_t@@XZ
?object_add_child_fast@@YAPAUlistitem@@PAVACObject@@0PAU1@@Z
?object_contains_vertex@@YAHPAVACObject@@PAVVertex@@@Z
?object_delete_marked_vertices@@YAHPAVACObject@@@Z
?object_delete_surfaces@@YAHPAVACObject@@@Z
?object_find_vertex_point_close@@YAPAVVertex@@PAVACObject@@PAUpoint3_t@@@Z
?object_get_marked_vertices@@YAXPAVACObject@@PAPAUlistitem@@@Z
?object_get_surfaces_part_marked@@YAXPAVACObject@@PAPAUlistitem@@@Z
?object_mark_referenced_vertices@@YAXPAVACObject@@H@Z
?object_surface_change_vertex_order@@YAHPAVACObject@@@Z
?opengl_get_viewport_size@ACViewWin@@QAEXPAH0@Z
?opengl_set_projection_and_position@ACViewWin@@QAEXXZ
?opengl_set_view_position@ACViewWin@@QAEXXZ
?opengl_set_view_projection@ACViewWin@@QAEXXZ
?overlay_begin@ACWin@@UAEXXZ
?overlay_end@ACWin@@UAEXXZ
?pixels_to_distance@ACViewWin@@QAEMH@Z
?pixels_to_world@ACViewWin@@QAEXPAUpoint3_t@@MPAM1@Z
?point2xy@ACViewWin@@QAEXPAUpoint3_t@@PAH1@Z
?prefs_set_pref_default@@YAXPAUprefspec@@@Z
?prepare_opengl_mouse@ACWin@@UAEXXZ
?print@ACCamera@@QAEXXZ
?print_material_template@@YAXPAUmaterial_template_t@@@Z
?process_user_tcl_scripts@@YAHXZ
?read_ac3dtcl_files@@YAHXZ
?read_opengl_state@ACViewWin@@QAEXXZ
?record_selection@UndoableModifyGeometry@@QAEXXZ
?record_texture_coords@UndoableChangeTextureCoords@@QAEPAUlistitem@@XZ
?rect_stipple@ACWin@@UAEXHHHH@Z
?redisplay@@YAXPAUTogl@@@Z
?redo@Undoable@@UAEXXZ
?redo@UndoableAddObjectWorld@@UAEXXZ
?redo@UndoableChangeTextureCoords@@UAEXXZ
?redo@UndoableModifyGeometry@@UAEXXZ
?redo@UndoableSelection@@UAEXXZ
?redo@UndoableVertexPositions@@UAEXXZ
?redraw@ACViewWin@@QAEXXZ
?redraw_all_priority@@YAXPAVACViewWin@@@Z
?redraw_noswap@ACViewWin@@UAEXXZ
?redraw_noswap@ACWin@@UAEXXZ
?refresh@ACObject@@QAEXXZ
?refresh_subdivision@ACObject@@QAEXXZ
?register_kml_export@@YAXXZ
?render_3d@@YAXPAVACViewWin@@@Z
?render_orth@@YAXPAVACViewWin@@@Z
?repeat@Undoable@@UAEXXZ
?request_redraw@ACWin@@UAEXXZ
?reset@ACCamera@@QAEXXZ
?reset@ACViewWin@@QAEXXZ
?reset_hide_lock@@YAXXZ
?rotate_form_selected_objects_param@@YAXHMHM@Z
?round_objects@@YAXPAD0@Z
?scale_div@ACCamera@@QAEXM@Z
?scale_mult@ACCamera@@QAEXM@Z
?scale_view2@ACViewWin@@QAEXM@Z
?scale_view2_nr@ACViewWin@@QAEXM@Z
?scale_view@ACViewWin@@QAEXM@Z
?scale_view_nr@ACViewWin@@QAEXM@Z
?selected_move_surfaces_forward@@YAXM@Z
?selected_translate_moved_already@@YAXPAUpoint3_t@@@Z
?selection_alter@@YAHPAUlistitem@@HH@Z
?selection_translate_recurse@@YAXPAVACObject@@PAUpoint3_t@@@Z
?set_antialias@ACViewWin@@QAEXH@Z
?set_background_image@ACViewWin@@QAEXPAVACImage@@@Z
?set_camera_fov@ACViewWin@@QAEXH@Z
?set_camera_walk@ACViewWin@@QAEXH@Z
?set_class@ACEntity@@QAEXPAVACClass@@@Z
?set_current@ACWin@@UAEXXZ
?set_cursor@ACWin@@UAEXH@Z
?set_direction@ACCamera@@QAEXPAUpoint3_t@@@Z
?set_direction_from_matrix@ACCamera@@AAEXXZ
?set_global_matrix_rotate_inv@@YAXMMM@Z
?set_location@ACCamera@@QAEXMMM@Z
?set_location@ACCamera@@QAEXPAUpoint3_t@@@Z
?set_name@Undoable@@QAEXPAD@Z
?set_offset@ACCamera@@QAEXPAUpoint3_t@@@Z
?set_origin@ACCamera@@QAEXPAUpoint3_t@@@Z
?set_projection@ACViewWin@@QAEXH@Z
?set_spin@ACCamera@@QAEXXZ
?set_spin_rotation@ACCamera@@QAEXMM@Z
?set_subdivision_level@ACObject@@UAEHH@Z
?set_value@ACEntity@@QAEHPAD0PAX@Z
?set_value_from_string@ACEntity@@QAEHPAD0@Z
?set_vertex_subdiv_data@ACObject@@QAEXXZ
?set_walk@ACCamera@@QAEXXZ
?smooth_vertices@@YAXPAUlistitem@@@Z
?sphere_fix_polar_mapping@@YAXPAUlistitem@@HPAUpoint3_t@@@Z
?strip_object@@YAXPAVACObject@@0@Z
?strip_object_reuse_vertices@@YAXPAVACObject@@0@Z
?surface_append_vertlist@@YAXPAVSurface@@PAUlistitem@@@Z
?surface_bevel@@YAPAVSurface@@PAVACObject@@PAV1@MMPAPAUlistitem@@222@Z
?surface_change_vertex_order2@@YAXPAVSurface@@@Z
?surface_clone_translate_track@@YAPAVSurface@@PAV1@PAVACObject@@PAUpoint3_t@@HPAPAUlistitem@@@Z
?surface_divide_edge@@YAHPAVSurface@@PAVVertex@@1PAPAUlistitem@@222@Z
?surface_has_adjacent_vertices@@YAHPAVSurface@@PAVVertex@@1@Z
?surface_make_hole@@YAPAVSurface@@PAVACObject@@PAV1@MHPAPAUlistitem@@2@Z
?surface_print@@YAXPAVSurface@@@Z
?surface_render_triangulated@@YAHPAVSurface@@HH@Z
?surface_spline@@YAHPAVSurface@@PAVACObject@@@Z
?swap_buffers@ACWin@@UAEXXZ
?swap_svlists@UndoableModifyGeometry@@IAEXXZ
?test@@YAXXZ
?test_working_but_only_works_with_one_shared_edge@@YAXXZ
?timer_is_on@ACViewWin@@QAEHXZ
?timer_off@ACViewWin@@QAEXXZ
?timer_on@ACViewWin@@QAEXXZ
?turn_down@ACCamera@@QAEXM@Z
?turn_left@ACCamera@@QAEXM@Z
?turn_right@ACCamera@@QAEXM@Z
?turn_up@ACCamera@@QAEXM@Z
?undo@Undoable@@UAEXXZ
?undo@UndoableAddObjectWorld@@UAEXXZ
?undo@UndoableChangeTextureCoords@@UAEXXZ
?undo@UndoableModifyGeometry@@UAEXXZ
?undo@UndoableSelection@@UAEXXZ
?undo@UndoableVertexPositions@@UAEXXZ
?unload_plugins@@YAXXZ
?update_subdivision_marked_vertex_positions@ACObject@@QAEXXZ
?update_subdivision_vertex_positions@ACObject@@QAEXXZ
?upgrade_dialog@@YAXXZ
?user_break@Undoable@@QAEHXZ
?vertexlist_get_closest@@YAPAUlistitem@@PAU1@PAUpoint3_t@@M1@Z
?view_all@ACCamera@@QAEXXZ
?view_box@ACCamera@@QAEXPAUpoint3_t@@0@Z
?view_selection@ACCamera@@QAEXXZ
?was_aborted@Undoable@@QAEHXZ
?window_preview_subdivided_objects@@YAHPAVACViewWin@@@Z
?windows_key_press@@YGJHIJ@Z
?windows_print_dialogXXXcrap@@YAXH@Z
?world_to_mouse@@YAXPAVACViewWin@@PAUpoint3_t@@1@Z
?world_to_mouse@ACViewWin@@QAEXPAUpoint3_t@@PAH1@Z
?write_3ds@@YAHPADPAVACObject@@@Z
?write_POV@@YAHPADPAVACObject@@@Z
?write_dive@@YAHPADPAVACObject@@@Z
?write_dvs@@YAHPADPAVACObject@@@Z
?write_inventor@@YAHPADPAVACObject@@@Z
?write_kml@@YAHPADPAVACObject@@@Z
?write_massive@@YAHPADPAVACObject@@@Z
?write_md2@@YAHPADPAVACObject@@@Z
?write_renderman@@YAHPADPAVACObject@@@Z
?write_stl@@YAHPADPAVACObject@@@Z
?write_tri@@YAHPADPAVACObject@@@Z
?write_vrml1@@YAHPADPAVACObject@@@Z
?write_vrml1_or_inventor@@YAHPADPAVACObject@@H@Z
?write_vrml2@@YAHPADPAVACObject@@@Z
?write_vrml2_proto@@YAHPADPAVACObject@@@Z
?xor_ellipse@ACWin@@UAEXHHHH@Z
?xor_ellipse_stipple@ACWin@@UAEXHHHH@Z
?xor_fill_rect@ACWin@@UAEXHHHH@Z
?xor_line@ACWin@@UAEXHHHH@Z
?xor_line_stipple@ACWin@@UAEXHHHH@Z
?xor_mode@ACWin@@QAEXH@Z
?xor_mode_stipple@ACWin@@QAEXH@Z
?xor_rect@ACWin@@UAEXHHHH@Z
?xor_rect_stipple@ACWin@@UAEXHHHH@Z
?xy2point@ACViewWin@@QAEHHHPAUpoint3_t@@@Z
?zero_offset@ACCamera@@QAEXXZ
?zero_origin@ACCamera@@QAEXXZ
GIFImageLoad
QueryExtension
RGBImageLoad
Tkpng_Init
Togl_AllocColor
Togl_AllocColorOverlay
Togl_ClientData
Togl_Configure
Togl_CreateCommand
Togl_CreateFunc
Togl_DestroyFunc
Togl_DisplayFunc
Togl_DumpToEpsFile
Togl_ExistsOverlay
Togl_FreeColor
Togl_FreeColorOverlay
Togl_GetClientData
Togl_GetOverlayTransparentValue
Togl_Height
Togl_HideOverlay
Togl_Ident
Togl_Init
Togl_Interp
Togl_IsMappedOverlay
Togl_LoadBitmapFont
Togl_MakeCurrent
Togl_OverlayDisplayFunc
Togl_PostOverlayRedisplay
Togl_PostRedisplay
Togl_ResetDefaultCallbacks
Togl_ReshapeFunc
Togl_SetClientData
Togl_SetColor
Togl_SetCreateFunc
Togl_SetDestroyFunc
Togl_SetDisplayFunc
Togl_SetReshapeFunc
Togl_SetTimerFunc
Togl_ShowOverlay
Togl_StereoFrustum
Togl_SwapBuffers
Togl_SwapInterval
Togl_TimerFunc
Togl_TkWin
Togl_TkWindowToTogl
Togl_UnloadBitmapFont
Togl_UseLayer
Togl_Width
UNDO
about_menu
ac3d_mainloop
ac_add_command
ac_add_command_full
ac_add_export_menu_item
ac_add_import_menu_item
ac_add_menu_item
ac_add_object_menu_item
ac_add_selection_changed_callback
ac_add_surface_menu_item
ac_add_tools_menu_item
ac_add_vertex_menu_item
ac_backslash_string
ac_camera_move_forward
ac_camera_move_left
ac_camera_move_up
ac_camera_turn_left
ac_camera_turn_up
ac_command_hide_selected_surfaces
ac_command_unhide_hidden_surfaces
ac_create_and_link_pref
ac_edge_add_surface
ac_edge_free
ac_edge_insert_vertex
ac_edgelist_find_selected_edges
ac_edgelist_free
ac_edgelist_get_by_surface
ac_edgelist_get_by_vertices
ac_edgelist_get_connected
ac_edgelist_get_connected_surfaces
ac_edgelist_get_edges_with_vertex
ac_edgelist_get_surfaces
ac_edgelist_print
ac_edgelist_remove_external_edges
ac_edgelist_remove_internal_edges
ac_entity_exists
ac_entity_get_boolean_value
ac_entity_get_class
ac_entity_get_class_name
ac_entity_get_entity_value
ac_entity_get_float_value
ac_entity_get_int_value
ac_entity_get_list_value
ac_entity_get_point_value
ac_entity_get_resource
ac_entity_get_rgb_value
ac_entity_get_string_value
ac_entity_get_value
ac_entity_is_class
ac_entity_set_boolean_value
ac_entity_set_float_value
ac_entity_set_int_value
ac_entity_set_list_value
ac_entity_set_point_value
ac_entity_set_rgb_value
ac_entity_set_string_value
ac_entity_set_value
ac_entity_set_value_from_string
ac_exception_get_message
ac_exporter_get_by_name
ac_exporter_select_file
ac_exporter_set_settings_function
ac_exporter_write_file
ac_extrude_along_path
ac_file_exists
ac_file_select_import
ac_file_select_import_name
ac_filename_concat_path_file
ac_filename_get_file
ac_filename_get_path
ac_filename_has_abs_path
ac_filename_has_relative_path
ac_filter_array_to_string
ac_find_class
ac_get_ac3d_homedir
ac_get_all_exporter_info
ac_get_all_importer_info
ac_get_current_selection
ac_get_export_filename
ac_get_export_filename_with_suffix
ac_get_export_folder
ac_get_file_importer_by_suffix
ac_get_filesize
ac_get_import_filename
ac_get_lights_list
ac_get_load_filename
ac_get_num_palette
ac_get_num_textures
ac_get_num_views
ac_get_open_texturefilename
ac_get_platform
ac_get_plugin_about
ac_get_plugin_info
ac_get_plugin_info_all
ac_get_plugin_list
ac_get_save_filename
ac_get_select_mode
ac_get_surfaces_by_material
ac_get_tcl_interp
ac_get_texture_loader_by_suffix
ac_get_tokens
ac_get_version_number
ac_get_version_revision
ac_get_world
ac_image_get_alpha_mask
ac_image_get_data
ac_image_get_dim
ac_image_set_alpha_mask
ac_image_set_data
ac_image_set_dim
ac_import_3ds
ac_import_ac
ac_import_aliastri
ac_import_dxf
ac_import_file
ac_import_lightwave
ac_import_tri
ac_import_vector
ac_import_vrml
ac_importer_set_settings_function
ac_list_get_unique_object_name
ac_material_duplicate
ac_material_get_name
ac_material_get_name_index
ac_material_get_template
ac_material_get_userdata
ac_material_index_to_rgb
ac_material_set_name
ac_material_set_userdata
ac_material_template_init
ac_material_to_palette_index
ac_new_entity
ac_new_group
ac_new_joint
ac_new_material
ac_new_material_from_template
ac_new_material_rgb
ac_new_object
ac_new_prop
ac_new_world
ac_object_add_position_key
ac_object_add_rotation_key
ac_object_add_triangle
ac_object_add_triangle_uv
ac_object_add_vertex_fast
ac_object_add_vertices_from_float_array
ac_object_check_integrity
ac_object_delete_all_geometry
ac_object_delete_surfaces
ac_object_dirty_all_normals
ac_object_find_bound
ac_object_get_centre
ac_object_get_childrenlist
ac_object_get_contents
ac_object_get_crease_angle
ac_object_get_data
ac_object_get_edges
ac_object_get_name
ac_object_get_num_children
ac_object_get_num_surfaces
ac_object_get_num_vertices
ac_object_get_parent
ac_object_get_selected_edges
ac_object_get_subdivision
ac_object_get_subdivision_level
ac_object_get_surfacelist
ac_object_get_texture_index
ac_object_get_texture_offset_x
ac_object_get_texture_offset_y
ac_object_get_texture_repeat_x
ac_object_get_texture_repeat_y
ac_object_get_triangle_surfaces
ac_object_get_type
ac_object_get_url
ac_object_get_userdata
ac_object_get_vertex_at_index
ac_object_get_vertex_index
ac_object_get_vertexlist
ac_object_has_children
ac_object_has_texture
ac_object_init_transform
ac_object_init_transform_recurse
ac_object_is_closed
ac_object_is_hidden
ac_object_is_locked
ac_object_is_subdivided
ac_object_is_visible
ac_object_is_visible_3d
ac_object_refresh
ac_object_refresh_subdivision
ac_object_refresh_subdivision_material
ac_object_remove_vertexlist
ac_object_replace_geometry
ac_object_set_centre
ac_object_set_crease_angle
ac_object_set_data
ac_object_set_local_position
ac_object_set_local_rotation
ac_object_set_name
ac_object_set_subdivision_level
ac_object_set_userdata
ac_object_swap_geometry
ac_object_vertexlist_set_indexes
ac_objectlist_refresh
ac_objectlist_refresh_subdivisions
ac_palette_append_material
ac_palette_find_material
ac_palette_get_material
ac_palette_get_new_material_index
ac_palette_get_new_material_index2
ac_palette_remove_material
ac_palette_set_material_name
ac_position_subdivided_marked_vertices
ac_pref_alloc_string
ac_pref_free_string
ac_prefs_get_boolean
ac_prefs_get_double
ac_prefs_get_hex
ac_prefs_get_int
ac_prefs_get_key
ac_prefs_get_spec
ac_prefs_get_string
ac_prefs_list
ac_prop_free
ac_proplist_duplicate
ac_proplist_get_prop
ac_proplist_get_value
ac_proplist_set_value
ac_register_builtin_texture_loaders
ac_register_class
ac_register_file_exporter
ac_register_file_importer
ac_register_internal_file_exporters
ac_register_internal_file_importers
ac_register_texture_loader
ac_remove_selection_changed_callback
ac_replace_exporter_function
ac_replace_importer_function
ac_select_object
ac_selected_dirty_subdivisions
ac_selection_deselect_vertexlist
ac_selection_free
ac_selection_get_bounding_box
ac_selection_get_bounding_box_centre
ac_selection_get_bounding_box_size
ac_selection_get_direction
ac_selection_get_edges
ac_selection_get_edges_external
ac_selection_get_edges_internal
ac_selection_get_groups
ac_selection_get_groups_ordered
ac_selection_get_objects
ac_selection_get_objects_ordered
ac_selection_get_part_selected_objects
ac_selection_get_part_selected_surfaces
ac_selection_get_part_selected_toplevel_objects
ac_selection_get_poly_objects
ac_selection_get_snapshot
ac_selection_get_surfaces
ac_selection_get_unselected_objects
ac_selection_get_vertices
ac_selection_get_vertices_all
ac_selection_get_vertices_ordered
ac_selection_get_whole_surfaces_all
ac_selection_is_empty
ac_selection_restore_from_snapshot
ac_selection_scale
ac_selection_select_by_surface
ac_selection_select_by_surfaces
ac_selection_select_objectlist
ac_selection_select_surfacelist
ac_selection_select_vertexlist
ac_set_opengl_texture_mag_filter
ac_set_opengl_texture_min_filter
ac_set_post_render_object_callback
ac_set_pre_render_object_callback
ac_surface_calc_centre
ac_surface_calc_centre_uv
ac_surface_calculate_area
ac_surface_clone_svlist
ac_surface_get_col
ac_surface_get_flags
ac_surface_get_index
ac_surface_get_normal
ac_surface_get_proxy
ac_surface_is_hidden
ac_surface_is_invalid_poly
ac_surface_is_marked
ac_surface_remove_svlist
ac_surface_replace_svlist
ac_surface_set_flags
ac_surface_set_hidden
ac_surface_set_index
ac_surface_set_marked
ac_surface_set_normal
ac_surface_triangulation_failed
ac_surfacelist_free
ac_surfacelist_get_cols_used
ac_surfacelist_get_objects
ac_surfacelist_get_surfaces_with_col
ac_surfacelist_get_vertices
ac_surfacelist_set_hidden
ac_surfacelist_set_indexes
ac_svlist_free
ac_tcl_link_pref
ac_tcl_unlink_pref
ac_unbackslash_string
ac_unhide_all_surfaces
ac_unselect_object
ac_vertex_get_index
ac_vertex_get_joint
ac_vertex_get_proxy
ac_vertex_set_index
ac_vertex_set_joint
ac_vertex_translate
ac_vertexlist_free
ac_view_destroy
ac_view_distance_to_pixels
ac_view_get_projection
ac_view_get_size
ac_view_openglify
ac_view_pixels_to_distance
ac_view_redraw
ac_view_set_projection
ac_views_get_3d
ac_views_get_current
ac_views_get_default_camera
ac_views_get_list
ac_views_get_new_id
ac_views_tkname_to_viewid
ac_win_get_pixels
ac_win_get_pixels_section
ac_win_render_noswap
ac_winid_to_view
ac_world_get_unique_object_name
ac_world_import_file
add_circle
add_cube
add_disk
add_grid
add_mesh
add_new_texture_opt
add_new_texture_reload
add_rect
add_sphere
add_text
add_undo_texture_coords
add_undoable
add_undoable_all
add_undoable_change_select_mode
add_undoable_change_selection
add_undoable_group
add_undoable_no_cleanup
add_undoable_object_centres
add_undoable_ungroup
add_undoable_vertex_positions
add_undoable_world_add_object
add_undoable_world_add_objectlist
allign_objects_using_2_vert
animator_advance_animation
animator_get_current_time
animator_get_max_time
animator_set_current_time
animator_set_max_time
bind_texture
bind_texture_id
cache_material
calc_centre
calc_size
calc_texture_coors
cancel_draw_object
check_escape_pressed
clear_all_redos
clear_all_undos
clear_background_image
clear_selection
clear_selection_refresh
clipboard_copy
clipboard_cut
clipboard_paste
clone_selected
clone_selection
com_class_get_resources
com_entitymanager_get_all
com_entitymanager_get_by_class
com_selection_rotate_full_axis_angle
command_ac_view_set_aa
command_clear_all
command_do_boolean
command_entity_get_class
command_entity_get_class_name
command_entity_get_resource
command_entity_get_value_as_string
command_get_current_object
command_get_exporter_info
command_get_importer_info
command_get_info
command_get_lights
command_get_num_views
command_get_platform
command_get_plugin_about
command_get_plugin_info
command_get_plugin_info_all
command_get_plugin_list
command_get_selected_objects
command_load_ac
command_load_ac_object
command_object_calc_normals
command_object_find_bound
command_object_get_centre
command_object_get_crease_angle
command_object_get_data
command_object_get_subdivision_level
command_object_get_surfaces
command_object_get_url
command_object_get_vertices
command_object_hide
command_object_is_hidden
command_object_is_locked
command_object_is_selected
command_object_is_visible
command_object_lock
command_object_reparent
command_object_set_crease_angle
command_object_set_subdivision_level
command_object_unhide
command_object_unlock
command_palette_get_material
command_resource_get_flags
command_resource_get_name
command_resource_get_type
command_result_append_float
command_result_append_int
command_result_append_string
command_result_appendf
command_result_get
command_result_set
command_save_ac
command_save_selection_ac
command_select_boundary_vertices
command_select_loop
command_select_object
command_select_outer_vertices
command_selected_change_subdivision_level
command_selected_objects_align
command_selected_remake_subdivisions
command_selection_get_info
command_selection_get_num_objects
command_selection_get_num_surfaces
command_selection_get_num_vertices
command_surfaces_select_connected
command_unselect_object
command_view_camera_is_walk
command_view_copy_to_clipboard
command_view_fit_all
command_view_fit_selected
command_view_get_camera
command_view_get_camera_fov
command_view_get_projection
command_view_goto_selected
command_view_redraw
command_view_reset
command_view_set_camera_fov
command_view_set_camera_walk
command_view_window_name_to_viewid
command_viewid_to_entity
command_views_get_new_id
command_weld_selected_vertices
convex_hull_2d
copy_3d_win_to_clipboard
copy_pointlist
copy_pointlist_rotate
copy_surfacelist
create_ico
create_link_surfaces
create_palette
create_regular_block
create_regular_cube
create_regular_cube_at
create_regular_disk
create_regular_elipse
create_regular_grid
create_regular_mesh
create_regular_rect
create_regular_sphere
create_regular_sphere_at
create_text
create_texture_menu
create_texture_menubutton
create_ui
debugf
delete_all_selected
delete_selection_with_undo
delete_surface
display_coor_data
display_message
display_status
do_command
draw_3d_cursor
draw_window_label
edit_palette_entry
extrude_selected
extrude_surface_edge
file_select_background_image
file_select_texture
file_select_texture_name
file_select_texture_noset
find_bounding_box
find_box
find_box_centre
find_box_size
find_children_bound
find_lights
find_named_object
find_nearest_vertex
find_object_bound
find_object_min
find_object_size
find_point_pos
find_selected_whole_surfaces
find_surfaces_of_svertexlist
find_surfaces_with_selected_vertex
find_vertices_of_selected_surfaces
fit_all
fit_selected_all
frame_cp
frame_invert
frame_mult
frame_multinv
frame_postmult
free_acimage
get_current_object
get_unselected_objects
gl_flush
goto_selected_all
group_selected_objects
handle_key_press
handle_key_press_win
handle_tcl_events
hide_object_undoable
hide_selected
hide_unselected
in_irect
index_to_3f
index_to_rgb
index_to_string
init_prefs
init_tcl_stuff
init_view3d
is_in_box
is_power_of_2
list_add_item
list_add_item_fast
list_add_item_head
list_add_item_unique
list_append_list
list_append_list_unique
list_check_for_duplicates
list_clone
list_clone_all
list_clone_reverse
list_count
list_create_array
list_end
list_free
list_free_all
list_get_item
list_get_item_fast
list_index
list_index_string
list_insert_item
list_insert_item_at
list_last_item
list_objects
list_prepare_fast
list_prepend_list
list_print
list_remove_item
list_remove_item_at
list_replace_item
list_replace_item_all
list_reverse
list_seekto
list_sort
list_union
load_3ds_file
load_all_plugins
load_background_image
load_dxf_file
load_lightwave_object
lock_selected
lock_unselected
long_rgb_to_floats
long_rgb_to_floatv
material_add
material_compare_name
material_divide
matrix_copy
matrix_is_identity
matrix_multiply
matrix_print
matrix_rotate_point
matrix_set_rotate
matrix_set_rotate_angle_axis
matrix_set_rotate_quaternion
message_dialog
mode_is_selectable
mode_to_string
move_bounding_box
move_selection
move_selection_f
myalloc
myfree
new_acimage
new_arc
new_circle
new_cylinder
new_edge
new_group
new_object
new_palette_entry
new_surface
new_svertex
new_vertex
new_vertex_set
new_world
normal_find_plane
normalize_point
nothing_is_selected
object_add_child
object_add_child_at
object_add_child_head
object_add_children
object_add_children_head
object_add_cube_view
object_add_cylinder_view
object_add_new_vertex
object_add_new_vertex_head
object_add_new_vertex_reuse
object_add_new_vertex_reuse_close
object_add_new_vertex_reuse_status
object_add_sphere_view
object_add_surface
object_add_surface_fast
object_add_surface_head
object_add_surfaces
object_add_vertex
object_add_vertex_head
object_add_vertices
object_add_vertices_unique
object_calc_normals
object_calc_normals_force
object_calculate_centre
object_calculate_centre_recurse
object_calculate_mincentre
object_clone
object_copy_data
object_delete
object_delete_actual
object_delete_nocleanup
object_delete_surface
object_delete_surface_and_points
object_delete_surface_points
object_delete_vertex
object_exists
object_find_vertex_point
object_fragment
object_free
object_get_kid_at
object_get_kids
object_get_surface_at
object_get_vertex_at
object_global_to_local
object_is_light
object_mark_vertices_of_selected_surfaces
object_mark_vertices_of_unselected_surfaces
object_move_down
object_move_to_head
object_move_to_tail
object_move_up
object_of_surface
object_of_vertex
object_optimize
object_optimize_surface_vertices
object_optimize_surfaces
object_parent
object_point_global_to_local
object_point_index
object_remove_child
object_remove_child_nocleanup
object_remove_surface
object_remove_surfaces
object_remove_vertex
object_reparent
object_reverse_normals
object_rotate_matrix
object_scale
object_set_col_index
object_set_init_texture
object_set_locked
object_set_name
object_set_surface_shading
object_set_surface_type
object_set_texture_offset
object_set_texture_repeat
object_set_twosided_faces
object_set_url
object_set_userdata
object_set_visible
object_surfaces_find_same_material
object_texture_clear
object_texture_set
object_top_ancestor
object_translation_local_to_global
object_ungroup
object_validate
object_vertices_mark
objectlist_calc_normals
objectlist_calc_normals_force
objectlist_contains_light
objectlist_delete
objectlist_free
objectlist_remove_from_parent
opengl_pop_matrix
opengl_push_matrix
optimize_selected
output_string
output_vrml_palette
plugin_load
point_find_nearest
point_in_surface
point_inside_box2
point_swap_yz
point_transform_global_to_local
point_transform_local_to_global
pointlist_rotate_matrix
points_are_coplanar
points_are_joined
points_dist
pop_interactive
popup_3d_menu
prefs_append_prefspec
prefs_get_prefs_filename
prefs_link_to_tcl
prefs_set_defaults
print_material
print_objects
print_palette
print_time
printp
push_interactive
qualifier_alt
qualifier_control
qualifier_shift
readfile_ac2
readfile_ac_old2
recalc_bb_info
recalc_normals_all
redraw_3d
redraw_all
redraw_orth
register_light
render_clear_lights
report_mem
request_redraw_all
reset_views
resize_bounding_box
reverse_rgb
rgb_float255v_to_long
rgb_floats_to_long
rgb_floatv_to_long
rgb_floatv_to_long_sgi
rgb_to_index
rotate_form_selected_objects
rotate_matrix
rotate_object
rotate_object_only
rotate_point_3d
rotate_pointlist_3d
rotate_selected
rotate_selected_rotated_already
rotate_selected_with_global_matrix
rotate_selection_about_f
rotate_selection_f
rotinvert
rotmult
rubber_band_cleanup
rubber_band_draw_rect
rubber_band_end_frame
rubber_band_init
rubber_band_start_frame
save_prefs
scale_object_point
scan_lights
search_and_set_texture
search_texture
search_texture_save
select_all
select_all_inside
select_by_name
select_named
select_part_selected_surfaces
select_surfaces_by_material
selected_calc_area
selected_calc_normals
selected_calc_normals_force
selected_calc_texture_coors
selected_combine_surfaces
selected_commit_subdivisions
selected_create_quad_from_three_vertices
selected_create_surface
selected_delaunay
selected_divide_edges
selected_duplicate
selected_extrude_dist
selected_extrude_edges
selected_extrude_normal_dist
selected_flatten_surfaces
selected_flip_edge
selected_flip_surface_normals
selected_insert_vertex
selected_make_convex_hull
selected_mincentre
selected_mirror
selected_object_explode
selected_object_fragment
selected_object_merge
selected_object_mirror
selected_objects_reduce
selected_objects_refresh
selected_optimize_surfaces
selected_quad_from_triangle_pair
selected_recentre
selected_refresh_subdivision_material
selected_refresh_subdivisions
selected_remove_surfaces
selected_scale
selected_scale_to_bound
selected_set_surface_col_index
selected_set_surface_shading
selected_set_surface_twosided
selected_set_surface_type
selected_set_texture_offsets
selected_set_texture_repeats
selected_slice_surface_across_vertices
selected_smooth_vertices
selected_snap_to_grid
selected_snap_together
selected_snap_together_distance
selected_spike_surfaces
selected_subdivide_objects
selected_subdivide_surfaces
selected_surface_change_vertex_order
selected_surface_triangulate
selected_surfaces_bevel
selected_surfaces_create_object
selected_surfaces_delete_with_vertices
selected_surfaces_indent
selected_surfaces_make_hole
selected_texture_off
selected_texture_set
selected_translate
selected_unshare_vertices
selected_vertices_align_to_axis
selection_changed
selection_get_num_objects
selection_get_num_surfaces
selection_get_num_vertices
selection_move_to_f
selection_rotate_axis_angle
selection_scale_to_bound
selection_size_to
selection_size_to_f
selection_translate
set_3d_cursor
set_busy_cursor
set_col
set_col_alpha
set_col_lit
set_col_lit_alpha
set_current_object_data
set_current_object_name
set_current_object_url
set_global_matrix_angle_axis
set_global_matrix_rotate
set_info_precision
set_new_draw_mode
set_new_draw_mode_string
set_new_select_mode
set_new_select_mode_ui
set_palette_entry
set_progress_bar
set_progress_bar_tick
set_redo_string
set_undo_string
show_all
show_angle
show_coors
show_coors_and_bb
show_coors_and_dim
show_coors_and_len
show_coors_and_point
show_size
snap_near
snap_to_grid
snap_to_grid_float
spline_selected
start_web_browser
string_append_string
string_get_suffix
string_set_value
string_to_mode
surface_add_quad_refs
surface_add_svertex
surface_add_svertex_head
surface_add_tri_refs
surface_add_vertex
surface_add_vertex_head
surface_calc_normal
surface_change_vertex_order
surface_clone
surface_clone_translate
surface_compare
surface_contains_vertex
surface_copy_properties
surface_delete_svertex
surface_free
surface_get_next_svertex
surface_get_previous_svertex
surface_get_shading
surface_get_svertex
surface_get_svertex_after
surface_get_svertex_at
surface_get_triangulations
surface_get_twosided
surface_get_type
surface_get_vertex
surface_insert_vertex
surface_is_convex
surface_optimize
surface_points_are_linked
surface_remove_svertex
surface_remove_vertex
surface_replace_vertex_all
surface_reverse_normal
surface_set_col
surface_set_rgb_long
surface_set_shading
surface_set_twosided
surface_set_type
surface_set_vertices_dirty
surface_translate_vertices
surface_triangulate
surface_vertex_index
surfacelist_delete_with_vertices
surfaces_calc_texture_coors
surfaces_calc_texture_coors_bound
surfaces_of_object_vertex
surfaces_of_vertex
surfaces_select_by_type
svertex_clone
svertex_free
system_execute
tcl_add_pref
tcl_animator_get_current_time
tcl_animator_get_max_time
tcl_command
tcl_eval_file
tcl_exporters_get_descs
tcl_exporters_get_names
tcl_get_3d_cursor
tcl_get_app_mode
tcl_get_axis_from_selection
tcl_get_selection_centre
tcl_get_selection_size
tcl_get_string
tcl_get_texture_repoff
tcl_get_version_number
tcl_get_version_string
tcl_get_window_coors
tcl_get_window_size
tcl_get_world
tcl_object_get_children
tcl_object_get_name
tcl_object_get_type
tcl_object_move_to_head
tcl_object_move_to_tail
tcl_set_int
tcl_set_string
tcl_trace_error
tcl_update
texture_build
texture_build_for_all_windows
texture_find_by_name
texture_id_to_image
texture_id_to_name
texture_id_to_origname
texture_read
texture_rebuild_all
texture_rebuild_all_textures_for_current_context
translate_object
translate_object_abs
translate_object_zero
translate_objectlist
translate_pointlist
ui_update_linked_var
ui_update_linked_vars
ungroup_selected_objects
unlock_all
unregister_light
unselect_by_name
unselect_named
update_ui
vertex_clone
vertex_delete
vertex_free
vertex_set_point
vertexlist_set_index
vertices_owned_by_same_object
win_mainloop
win_set_mode_cursor
window_select_opaque
window_select_transparent
windows_message_dialog
windows_print_dialog
windows_print_setup_dialog
write_SKELETON
write_ac
write_ac_object
write_ac_old
write_tri_object
xor_3dline
xor_3dline_stipple
xor_cross_all
xor_cursor_all
zoom_view
